target datalayout = "e-m:e-p270:32:32-p271:32:32-p272:64:64-i64:64-i128:128-f80:128-n8:16:32:64-S128"
target triple = "x86_64-pc-linux-gnu"

%"class.cv::Mat" = type { i32, i32, i32, i32, ptr, ptr, ptr, ptr, ptr, ptr, %"struct.cv::MatSize", %"struct.cv::MatStep" }
%"struct.cv::MatSize" = type { ptr }
%"struct.cv::MatStep" = type { ptr, [2 x i64] }
%"class.cv::Range" = type { i32, i32 }
%"class.cv::ParallelLoopBody" = type { ptr }
%"class.cv::ResizeArea_Invoker" = type { %"class.cv::ParallelLoopBody", ptr, ptr, ptr, ptr, i32, i32, ptr }

@_ZTVN2cv16ParallelLoopBodyE = available_externally unnamed_addr constant { [5 x ptr] } { [5 x ptr] [ptr null, ptr @_ZTIN2cv16ParallelLoopBodyE, ptr @_ZN2cv16ParallelLoopBodyD1Ev, ptr @_ZN2cv16ParallelLoopBodyD0Ev, ptr @__cxa_pure_virtual] }, align 8

; Function Attrs: inlinehint mustprogress nounwind uwtable
define linkonce_odr hidden void @_ZN2cv16ParallelLoopBodyC2Ev(ptr noundef nonnull align 8 dereferenceable(8) %0) unnamed_addr #5 comdat align 2 {
  %2 = alloca ptr, align 8
  store ptr %0, ptr %2, align 8, !tbaa !143
  %3 = load ptr, ptr %2, align 8
  store ptr getelementptr inbounds inrange(-16, 24) ({ [5 x ptr] }, ptr @_ZTVN2cv16ParallelLoopBodyE, i32 0, i32 0, i32 2), ptr %3, align 8, !tbaa !137
  ret void
}

; Function Attrs: mustprogress nounwind uwtable
define linkonce_odr hidden void @_ZN2cv18ResizeArea_InvokerIhfEC2ERKNS_3MatERS2_PKNS_13DecimateAlphaEiS8_iPKi(ptr noundef nonnull align 8 dereferenceable(56) %0, ptr noundef nonnull align 8 dereferenceable(96) %1, ptr noundef nonnull align 8 dereferenceable(96) %2, ptr noundef %3, i32 noundef %4, ptr noundef %5, i32 noundef %6, ptr noundef %7) unnamed_addr #4 comdat align 2 {
  %9 = alloca ptr, align 8
  %10 = alloca ptr, align 8
  %11 = alloca ptr, align 8
  %12 = alloca ptr, align 8
  %13 = alloca i32, align 4
  %14 = alloca ptr, align 8
  %15 = alloca i32, align 4
  %16 = alloca ptr, align 8
  store ptr %0, ptr %9, align 8, !tbaa !802
  store ptr %1, ptr %10, align 8, !tbaa !58
  store ptr %2, ptr %11, align 8, !tbaa !58
  store ptr %3, ptr %12, align 8, !tbaa !29
  store i32 %4, ptr %13, align 4, !tbaa !3
  store ptr %5, ptr %14, align 8, !tbaa !29
  store i32 %6, ptr %15, align 4, !tbaa !3
  store ptr %7, ptr %16, align 8, !tbaa !22
  %17 = load ptr, ptr %9, align 8
  call void @_ZN2cv16ParallelLoopBodyC2Ev(ptr noundef nonnull align 8 dereferenceable(8) %17) #19
  store ptr getelementptr inbounds inrange(-16, 24) ({ [5 x ptr] }, ptr @_ZTVN2cv18ResizeArea_InvokerIhfEE, i32 0, i32 0, i32 2), ptr %17, align 8, !tbaa !137
  %18 = load ptr, ptr %10, align 8, !tbaa !58
  %19 = getelementptr inbounds nuw %"class.cv::ResizeArea_Invoker", ptr %17, i32 0, i32 1
  store ptr %18, ptr %19, align 8, !tbaa !804
  %20 = load ptr, ptr %11, align 8, !tbaa !58
  %21 = getelementptr inbounds nuw %"class.cv::ResizeArea_Invoker", ptr %17, i32 0, i32 2
  store ptr %20, ptr %21, align 8, !tbaa !806
  %22 = load ptr, ptr %12, align 8, !tbaa !29
  %23 = getelementptr inbounds nuw %"class.cv::ResizeArea_Invoker", ptr %17, i32 0, i32 3
  store ptr %22, ptr %23, align 8, !tbaa !807
  %24 = load i32, ptr %13, align 4, !tbaa !3
  %25 = getelementptr inbounds nuw %"class.cv::ResizeArea_Invoker", ptr %17, i32 0, i32 5
  store i32 %24, ptr %25, align 8, !tbaa !808
  %26 = load ptr, ptr %14, align 8, !tbaa !29
  %27 = getelementptr inbounds nuw %"class.cv::ResizeArea_Invoker", ptr %17, i32 0, i32 4
  store ptr %26, ptr %27, align 8, !tbaa !809
  %28 = load i32, ptr %15, align 4, !tbaa !3
  %29 = getelementptr inbounds nuw %"class.cv::ResizeArea_Invoker", ptr %17, i32 0, i32 6
  store i32 %28, ptr %29, align 4, !tbaa !810
  %30 = load ptr, ptr %16, align 8, !tbaa !22
  %31 = getelementptr inbounds nuw %"class.cv::ResizeArea_Invoker", ptr %17, i32 0, i32 7
  store ptr %30, ptr %31, align 8, !tbaa !811
  ret void
}

; Function Attrs: inlinehint mustprogress nounwind uwtable
define linkonce_odr hidden void @_ZN2cv5RangeC2Eii(ptr noundef nonnull align 4 dereferenceable(8) %0, i32 noundef %1, i32 noundef %2) unnamed_addr #5 comdat align 2 {
  %4 = alloca ptr, align 8
  %5 = alloca i32, align 4
  %6 = alloca i32, align 4
  store ptr %0, ptr %4, align 8, !tbaa !130
  store i32 %1, ptr %5, align 4, !tbaa !3
  store i32 %2, ptr %6, align 4, !tbaa !3
  %7 = load ptr, ptr %4, align 8
  %8 = getelementptr inbounds nuw %"class.cv::Range", ptr %7, i32 0, i32 0
  %9 = load i32, ptr %5, align 4, !tbaa !3
  store i32 %9, ptr %8, align 4, !tbaa !132
  %10 = getelementptr inbounds nuw %"class.cv::Range", ptr %7, i32 0, i32 1
  %11 = load i32, ptr %6, align 4, !tbaa !3
  store i32 %11, ptr %10, align 4, !tbaa !134
  ret void
}

; Function Attrs: mustprogress uwtable
define internal void @_ZN2cvL11resizeArea_IhfEEvRKNS_3MatERS1_PKNS_13DecimateAlphaEiS7_iPKi(ptr noundef nonnull align 8 dereferenceable(96) %0, ptr noundef nonnull align 8 dereferenceable(96) %1, ptr noundef %2, i32 noundef %3, ptr noundef %4, i32 noundef %5, ptr noundef %6) #0 personality ptr @__gxx_personality_v0 {
  %8 = alloca ptr, align 8
  %9 = alloca ptr, align 8
  %10 = alloca ptr, align 8
  %11 = alloca i32, align 4
  %12 = alloca ptr, align 8
  %13 = alloca i32, align 4
  %14 = alloca ptr, align 8
  %15 = alloca %"class.cv::Range", align 4
  %16 = alloca %"class.cv::ResizeArea_Invoker", align 8
  %17 = alloca ptr, align 8
  %18 = alloca i32, align 4
  store ptr %0, ptr %8, align 8, !tbaa !58
  store ptr %1, ptr %9, align 8, !tbaa !58
  store ptr %2, ptr %10, align 8, !tbaa !29
  store i32 %3, ptr %11, align 4, !tbaa !3
  store ptr %4, ptr %12, align 8, !tbaa !29
  store i32 %5, ptr %13, align 4, !tbaa !3
  store ptr %6, ptr %14, align 8, !tbaa !22
  call void @llvm.lifetime.start.p0(i64 8, ptr %15) #19
  %19 = load ptr, ptr %9, align 8, !tbaa !58
  %20 = getelementptr inbounds nuw %"class.cv::Mat", ptr %19, i32 0, i32 2
  %21 = load i32, ptr %20, align 8, !tbaa !60
  call void @_ZN2cv5RangeC2Eii(ptr noundef nonnull align 4 dereferenceable(8) %15, i32 noundef 0, i32 noundef %21)
  call void @llvm.lifetime.start.p0(i64 56, ptr %16) #19
  %22 = load ptr, ptr %8, align 8, !tbaa !58
  %23 = load ptr, ptr %9, align 8, !tbaa !58
  %24 = load ptr, ptr %10, align 8, !tbaa !29
  %25 = load i32, ptr %11, align 4, !tbaa !3
  %26 = load ptr, ptr %12, align 8, !tbaa !29
  %27 = load i32, ptr %13, align 4, !tbaa !3
  %28 = load ptr, ptr %14, align 8, !tbaa !22
  call void @_ZN2cv18ResizeArea_InvokerIhfEC2ERKNS_3MatERS2_PKNS_13DecimateAlphaEiS8_iPKi(ptr noundef nonnull align 8 dereferenceable(56) %16, ptr noundef nonnull align 8 dereferenceable(96) %22, ptr noundef nonnull align 8 dereferenceable(96) %23, ptr noundef %24, i32 noundef %25, ptr noundef %26, i32 noundef %27, ptr noundef %28)
  %29 = load ptr, ptr %9, align 8, !tbaa !58
  %30 = invoke noundef i64 @_ZNK2cv3Mat5totalEv(ptr noundef nonnull align 8 dereferenceable(96) %29)
          to label %31 unwind label %35

31:                                               ; preds = %7
  %32 = uitofp i64 %30 to double
  %33 = fdiv double %32, 6.553600e+04
  invoke void @_ZN2cv13parallel_for_ERKNS_5RangeERKNS_16ParallelLoopBodyEd(ptr noundef nonnull align 4 dereferenceable(8) %15, ptr noundef nonnull align 8 dereferenceable(8) %16, double noundef %33)
          to label %34 unwind label %35

34:                                               ; preds = %31
  call void @_ZN2cv16ParallelLoopBodyD2Ev(ptr noundef nonnull align 8 dereferenceable(56) %16) #19
  call void @llvm.lifetime.end.p0(i64 56, ptr %16) #19
  call void @llvm.lifetime.end.p0(i64 8, ptr %15) #19
  ret void

35:                                               ; preds = %31, %7
  %36 = landingpad { ptr, i32 }
          cleanup
  %37 = extractvalue { ptr, i32 } %36, 0
  store ptr %37, ptr %17, align 8
  %38 = extractvalue { ptr, i32 } %36, 1
  store i32 %38, ptr %18, align 4
  call void @_ZN2cv16ParallelLoopBodyD2Ev(ptr noundef nonnull align 8 dereferenceable(56) %16) #19
  call void @llvm.lifetime.end.p0(i64 56, ptr %16) #19
  call void @llvm.lifetime.end.p0(i64 8, ptr %15) #19
  br label %39

39:                                               ; preds = %35
  %40 = load ptr, ptr %17, align 8
  %41 = load i32, ptr %18, align 4
  %42 = insertvalue { ptr, i32 } poison, ptr %40, 0
  %43 = insertvalue { ptr, i32 } %42, i32 %41, 1
  resume { ptr, i32 } %43
}